(ioptparse
Values
p0
(dp1
S'bSkipLambdaIndex'
p2
S''
p3
sS'methods'
p4
S'TI-CUBIC'
p5
sS'prefix'
p6
S'lambda*'
p7
sS'verbose'
p8
I00
sS'lv_names'
p9
(lp10
g3
asS'temperature'
p11
I298
sS'ddFs'
p12
(lp13
(dp14
S'TI-CUBIC'
p15
cnumpy.core.multiarray
scalar
p16
(cnumpy
dtype
p17
(S'f8'
p18
I0
I1
tp19
Rp20
(I3
S'<'
p21
NNNI-1
I-1
I0
tp22
bS'\x00\x00\x00\x00\x00\x00\x00\x00'
p23
tp24
Rp25
sa(dp26
g15
g16
(g20
S'8\xc35\xc9\x1a#d?'
p27
tp28
Rp29
sa(dp30
g15
g16
(g20
S'8\xc35\xc9\x1a#d?'
p31
tp32
Rp33
sasS'overlap'
p34
I00
sS'units'
p35
S'(kcal/mol)'
p36
sS'df_allk'
p37
cnumpy.core.multiarray
_reconstruct
p38
(cnumpy
ndarray
p39
(I0
tp40
S'b'
p41
tp42
Rp43
(I1
(I16
tp44
g17
(S'O8'
p45
I0
I1
tp46
Rp47
(I3
S'|'
p48
NNNI-1
I-1
I63
tp49
bI00
(lp50
(dp51
S'TI-CUBIC'
p52
g16
(g20
S'\n\xd5v8BM\x01\xc0'
p53
tp54
Rp55
sa(dp56
g52
g16
(g20
S'\xf4\xab3\xf8\xe3\xab\xd1\xbf'
p57
tp58
Rp59
sa(dp60
g52
g16
(g20
S'\xe4\x15\x80\\\xf7\xd6\xc2?'
p61
tp62
Rp63
sa(dp64
g52
g16
(g20
S'\xf44\xf2\x97\x86/\xcc?'
p65
tp66
Rp67
sa(dp68
g52
g16
(g20
S'V{Qog8\xc5?'
p69
tp70
Rp71
sa(dp72
g52
g16
(g20
S'\x12h\xd3\xf68\xdc\xba?'
p73
tp74
Rp75
sa(dp76
g52
g16
(g20
S'\x10\x89\xd6l\x994\xae?'
p77
tp78
Rp79
sa(dp80
g52
g16
(g20
S'\x8d+\xb1\xd7\x15C\x9f?'
p81
tp82
Rp83
sa(dp84
g52
g16
(g20
S',\xa2\x1a\n7\xdb\x8d?'
p85
tp86
Rp87
sa(dp88
g52
g16
(g20
S'\xe1\xa3\x08\x95\x86\xb6y?'
p89
tp90
Rp91
sa(dp92
g52
g16
(g20
S']\xff\xa3Q\x06uc?'
p93
tp94
Rp95
sa(dp96
g52
g16
(g20
S'\x93\xfd\xa5\x9a\x1e\xb3H?'
p97
tp98
Rp99
sa(dp100
g52
g16
(g20
S"B\xcf{\xb6b\xbd'?"
p101
tp102
Rp103
sa(dp104
g52
g16
(g20
S'\xe7h\x04\x8c\xe6x\xfd>'
p105
tp106
Rp107
sa(dp108
g52
g16
(g20
S"\xc8\xcd.'\x06\xad\xbd>"
p109
tp110
Rp111
sa(dp112
g52
g16
(g20
S'N\n\xc97\xf1\xd4h>'
p113
tp114
Rp115
satp116
bsS'breakdown'
p117
I01
sS'datafile_directory'
p118
S'/home/steboss/Simulation/Cluster/reproducibility/absolute/run002/2-cyclopentanlyindole/vacuum/vanish/analysis_gro'
p119
sS'bIgnoreWL'
p120
I00
sS'init_with'
p121
S'BAR'
p122
sS'dFs'
p123
(lp124
(dp125
g15
I0
sa(dp126
g15
g16
(g20
S';\xedr\xe9\x10\xfe\xfa\xbf'
p127
tp128
Rp129
sa(dp130
g15
g16
(g20
S';\xedr\xe9\x10\xfe\xfa\xbf'
p131
tp132
Rp133
sasS'output_directory'
p134
S'.'
p135
sS'beta'
p136
F0.40359852979970595
sS'ddf_allk'
p137
g38
(g39
(I0
tp138
g41
tp139
Rp140
(I1
(I16
tp141
g47
I00
(lp142
(dp143
g52
g16
(g20
S'\xbf1+\xcc\xfc\x04\\?'
p144
tp145
Rp146
sa(dp147
g52
g16
(g20
S'\xab=\xe3\xfaAFQ?'
p148
tp149
Rp150
sa(dp151
g52
g16
(g20
S'\xf3\xda\xef&?\xefC?'
p152
tp153
Rp154
sa(dp155
g52
g16
(g20
S'\xcb|\x11\xfe\xedA4?'
p156
tp157
Rp158
sa(dp159
g52
g16
(g20
S'u&\xcd\xfaI\xf0 ?'
p160
tp161
Rp162
sa(dp163
g52
g16
(g20
S'\xfd R\xc1\x17\x07\x10?'
p164
tp165
Rp166
sa(dp167
g52
g16
(g20
S'T\xfe=\xd4\x10\xc8\x01?'
p168
tp169
Rp170
sa(dp171
g52
g16
(g20
S'\xa8\xf1\x00b\t\xa3\xf3>'
p172
tp173
Rp174
sa(dp175
g52
g16
(g20
S'\x9e#\xd5\x18U-\xe4>'
p176
tp177
Rp178
sa(dp179
g52
g16
(g20
S'\x94v\xe8\xbf\xc8\x94\xd2>'
p180
tp181
Rp182
sa(dp183
g52
g16
(g20
S'\xbb\x9b\xb0#\x95;\xbe>'
p184
tp185
Rp186
sa(dp187
g52
g16
(g20
S',\x86\xd6k\x90\xe1\xa5>'
p188
tp189
Rp190
sa(dp191
g52
g16
(g20
S'\xbeYR\x90\x92\x1e\x8a>'
p192
tp193
Rp194
sa(dp195
g52
g16
(g20
S'\te\x19\x99\x06\x8fj>'
p196
tp197
Rp198
sa(dp199
g52
g16
(g20
S'\xdd\x03\x08\xa4\x15\xaeI>'
p200
tp201
Rp202
sa(dp203
g52
g16
(g20
S'\xde\x02\x05\x15P\xb80>'
p204
tp205
Rp206
satp207
bsS'when_analyzed'
p208
S'Mon Apr 24 13:53:23 2017'
p209
sS'uncorr_threshold'
p210
I0
sS'beta_report'
p211
F0.40359852979970595
sS'decimal'
p212
I4
sS'bForwrev'
p213
I0
sS'bCFM'
p214
I00
sS'suffix'
p215
g3
sS'equiltime'
p216
I0
sS'relative_tolerance'
p217
F1e-10
sS'software'
p218
S'Sire'
p219
sb.